target datalayout = "e-m:e-p270:32:32-p271:32:32-p272:64:64-i64:64-i128:128-f80:128-n8:16:32:64-S128"
target triple = "x86_64-pc-linux-gnu"

%struct._object = type { %union.anon.41, ptr }
%union.anon.41 = type { i64 }
%struct.PyVarObject = type { %struct._object, i64 }
%struct._ts = type { ptr, ptr, ptr, i64, %struct.anon.805, i32, i32, i32, i32, i32, i32, i32, i32, ptr, ptr, ptr, ptr, ptr, ptr, ptr, ptr, i32, ptr, i64, i64, ptr, i64, i32, ptr, ptr, ptr, i64, i64, ptr, ptr, ptr, %struct._err_stackitem, ptr, i64, ptr, ptr }
%struct.anon.805 = type { i32 }
%struct._err_stackitem = type { ptr, ptr }
%struct._typeobject = type { %struct.PyVarObject, ptr, i64, i64, ptr, i64, ptr, ptr, ptr, ptr, ptr, ptr, ptr, ptr, ptr, ptr, ptr, ptr, ptr, i64, ptr, ptr, ptr, ptr, i64, ptr, ptr, ptr, ptr, ptr, ptr, ptr, ptr, ptr, i64, ptr, ptr, ptr, ptr, ptr, ptr, ptr, ptr, ptr, ptr, ptr, i32, ptr, ptr, i8, i16 }
%struct.anon.42 = type { i32, i32 }

@_Py_NoneStruct = external global %struct._object, align 8
@ThreadInfoType = internal global %struct._typeobject zeroinitializer, align 8
@.str.9 = private unnamed_addr constant [8 x i8] c"pthread\00", align 1
@.str.10 = private unnamed_addr constant [10 x i8] c"semaphore\00", align 1
@_Py_tss_tstate = external thread_local global ptr, align 8
@threadinfo_desc = internal global { ptr, ptr, ptr, i32, [4 x i8] } { ptr @.str.11, ptr @threadinfo__doc__, ptr @threadinfo_fields, i32 3, [4 x i8] zeroinitializer }, align 8

; Function Attrs: alwaysinline nounwind uwtable
define internal void @Py_INCREF(ptr noundef %0) #9 {
  %2 = alloca ptr, align 8
  %3 = alloca i32, align 4
  %4 = alloca i32, align 4
  store ptr %0, ptr %2, align 8, !tbaa !196
  call void @llvm.lifetime.start.p0(i64 4, ptr %3) #11
  %5 = load ptr, ptr %2, align 8, !tbaa !196
  %6 = getelementptr inbounds nuw %struct._object, ptr %5, i32 0, i32 0
  %7 = getelementptr inbounds nuw %struct.anon.42, ptr %6, i32 0, i32 0
  %8 = load i32, ptr %7, align 8, !tbaa !203
  store i32 %8, ptr %3, align 4, !tbaa !175
  %9 = load i32, ptr %3, align 4, !tbaa !175
  %10 = icmp slt i32 %9, 0
  br i1 %10, label %11, label %12

11:                                               ; preds = %1
  store i32 1, ptr %4, align 4
  br label %18

12:                                               ; preds = %1
  %13 = load i32, ptr %3, align 4, !tbaa !175
  %14 = add i32 %13, 1
  %15 = load ptr, ptr %2, align 8, !tbaa !196
  %16 = getelementptr inbounds nuw %struct._object, ptr %15, i32 0, i32 0
  %17 = getelementptr inbounds nuw %struct.anon.42, ptr %16, i32 0, i32 0
  store i32 %14, ptr %17, align 8, !tbaa !203
  store i32 0, ptr %4, align 4
  br label %18

18:                                               ; preds = %12, %11
  call void @llvm.lifetime.end.p0(i64 4, ptr %3) #11
  %19 = load i32, ptr %4, align 4
  switch i32 %19, label %21 [
    i32 0, label %20
    i32 1, label %20
  ]

20:                                               ; preds = %18, %18
  ret void

21:                                               ; preds = %18
  unreachable
}

; Function Attrs: alwaysinline nounwind uwtable
define internal i32 @_Py_IsImmortal(ptr noundef %0) #9 {
  %2 = alloca ptr, align 8
  store ptr %0, ptr %2, align 8, !tbaa !196
  %3 = load ptr, ptr %2, align 8, !tbaa !196
  %4 = getelementptr inbounds nuw %struct._object, ptr %3, i32 0, i32 0
  %5 = getelementptr inbounds nuw %struct.anon.42, ptr %4, i32 0, i32 0
  %6 = load i32, ptr %5, align 8, !tbaa !203
  %7 = icmp slt i32 %6, 0
  %8 = zext i1 %7 to i32
  ret i32 %8
}

; Function Attrs: inlinehint nounwind uwtable
define internal ptr @_PyThreadState_GET() #8 {
  %1 = call align 8 ptr @llvm.threadlocal.address.p0(ptr align 8 @_Py_tss_tstate)
  %2 = load ptr, ptr %1, align 8, !tbaa !186
  ret ptr %2
}

; Function Attrs: inlinehint nounwind uwtable
define internal ptr @_Py_NewRef(ptr noundef %0) #8 {
  %2 = alloca ptr, align 8
  store ptr %0, ptr %2, align 8, !tbaa !196
  %3 = load ptr, ptr %2, align 8, !tbaa !196
  call void @Py_INCREF(ptr noundef %3)
  %4 = load ptr, ptr %2, align 8, !tbaa !196
  ret ptr %4
}

; Function Attrs: alwaysinline nounwind uwtable
define internal void @Py_DECREF(ptr noundef %0) #9 {
  %2 = alloca ptr, align 8
  store ptr %0, ptr %2, align 8, !tbaa !196
  %3 = load ptr, ptr %2, align 8, !tbaa !196
  %4 = call i32 @_Py_IsImmortal(ptr noundef %3)
  %5 = icmp ne i32 %4, 0
  br i1 %5, label %6, label %7

6:                                                ; preds = %1
  br label %16

7:                                                ; preds = %1
  %8 = load ptr, ptr %2, align 8, !tbaa !196
  %9 = getelementptr inbounds nuw %struct._object, ptr %8, i32 0, i32 0
  %10 = getelementptr inbounds nuw %struct.anon.42, ptr %9, i32 0, i32 0
  %11 = load i32, ptr %10, align 8, !tbaa !203
  %12 = add i32 %11, -1
  store i32 %12, ptr %10, align 8, !tbaa !203
  %13 = icmp eq i32 %12, 0
  br i1 %13, label %14, label %16

14:                                               ; preds = %7
  %15 = load ptr, ptr %2, align 8, !tbaa !196
  call void @_Py_Dealloc(ptr noundef %15)
  br label %16

16:                                               ; preds = %6, %14, %7
  ret void
}

; Function Attrs: inlinehint nounwind uwtable
define internal i32 @_PyStructSequence_InitBuiltin(ptr noundef %0, ptr noundef %1, ptr noundef %2) #8 {
  %4 = alloca ptr, align 8
  %5 = alloca ptr, align 8
  %6 = alloca ptr, align 8
  store ptr %0, ptr %4, align 8, !tbaa !199
  store ptr %1, ptr %5, align 8, !tbaa !200
  store ptr %2, ptr %6, align 8, !tbaa !201
  %7 = load ptr, ptr %4, align 8, !tbaa !199
  %8 = load ptr, ptr %5, align 8, !tbaa !200
  %9 = load ptr, ptr %6, align 8, !tbaa !201
  %10 = call i32 @_PyStructSequence_InitBuiltinWithFlags(ptr noundef %7, ptr noundef %8, ptr noundef %9, i64 noundef 0)
  ret i32 %10
}

; Function Attrs: inlinehint nounwind uwtable
define internal ptr @_PyInterpreterState_GET() #8 {
  %1 = alloca ptr, align 8
  call void @llvm.lifetime.start.p0(i64 8, ptr %1) #11
  %2 = call ptr @_PyThreadState_GET()
  store ptr %2, ptr %1, align 8, !tbaa !186
  %3 = load ptr, ptr %1, align 8, !tbaa !186
  %4 = getelementptr inbounds nuw %struct._ts, ptr %3, i32 0, i32 2
  %5 = load ptr, ptr %4, align 8, !tbaa !187
  call void @llvm.lifetime.end.p0(i64 8, ptr %1) #11
  ret ptr %5
}

; Function Attrs: nounwind uwtable
define dso_local ptr @PyThread_GetInfo() #0 {
  %1 = alloca ptr, align 8
  %2 = alloca ptr, align 8
  %3 = alloca ptr, align 8
  %4 = alloca i32, align 4
  %5 = alloca [255 x i8], align 16
  %6 = alloca i32, align 4
  %7 = alloca ptr, align 8
  %8 = alloca i32, align 4
  call void @llvm.lifetime.start.p0(i64 8, ptr %2) #11
  call void @llvm.lifetime.start.p0(i64 8, ptr %3) #11
  call void @llvm.lifetime.start.p0(i64 4, ptr %4) #11
  store i32 0, ptr %4, align 4, !tbaa !175
  call void @llvm.lifetime.start.p0(i64 255, ptr %5) #11
  call void @llvm.lifetime.start.p0(i64 4, ptr %6) #11
  call void @llvm.lifetime.start.p0(i64 8, ptr %7) #11
  %9 = call ptr @_PyInterpreterState_GET()
  store ptr %9, ptr %7, align 8, !tbaa !199
  %10 = load ptr, ptr %7, align 8, !tbaa !199
  %11 = call i32 @_PyStructSequence_InitBuiltin(ptr noundef %10, ptr noundef @ThreadInfoType, ptr noundef @threadinfo_desc)
  %12 = icmp slt i32 %11, 0
  br i1 %12, label %13, label %14

13:                                               ; preds = %0
  store ptr null, ptr %1, align 8
  store i32 1, ptr %8, align 4
  br label %73

14:                                               ; preds = %0
  %15 = call ptr @PyStructSequence_New(ptr noundef @ThreadInfoType)
  store ptr %15, ptr %2, align 8, !tbaa !196
  %16 = load ptr, ptr %2, align 8, !tbaa !196
  %17 = icmp eq ptr %16, null
  br i1 %17, label %18, label %19

18:                                               ; preds = %14
  store ptr null, ptr %1, align 8
  store i32 1, ptr %8, align 4
  br label %73

19:                                               ; preds = %14
  %20 = call ptr @PyUnicode_FromString(ptr noundef @.str.9)
  store ptr %20, ptr %3, align 8, !tbaa !196
  %21 = load ptr, ptr %3, align 8, !tbaa !196
  %22 = icmp eq ptr %21, null
  br i1 %22, label %23, label %25

23:                                               ; preds = %19
  %24 = load ptr, ptr %2, align 8, !tbaa !196
  call void @Py_DECREF(ptr noundef %24)
  store ptr null, ptr %1, align 8
  store i32 1, ptr %8, align 4
  br label %73

25:                                               ; preds = %19
  %26 = load ptr, ptr %2, align 8, !tbaa !196
  %27 = load i32, ptr %4, align 4, !tbaa !175
  %28 = add i32 %27, 1
  store i32 %28, ptr %4, align 4, !tbaa !175
  %29 = sext i32 %27 to i64
  %30 = load ptr, ptr %3, align 8, !tbaa !196
  call void @PyStructSequence_SetItem(ptr noundef %26, i64 noundef %29, ptr noundef %30)
  %31 = call ptr @PyUnicode_FromString(ptr noundef @.str.10)
  store ptr %31, ptr %3, align 8, !tbaa !196
  %32 = load ptr, ptr %3, align 8, !tbaa !196
  %33 = icmp eq ptr %32, null
  br i1 %33, label %34, label %36

34:                                               ; preds = %25
  %35 = load ptr, ptr %2, align 8, !tbaa !196
  call void @Py_DECREF(ptr noundef %35)
  store ptr null, ptr %1, align 8
  store i32 1, ptr %8, align 4
  br label %73

36:                                               ; preds = %25
  %37 = load ptr, ptr %2, align 8, !tbaa !196
  %38 = load i32, ptr %4, align 4, !tbaa !175
  %39 = add i32 %38, 1
  store i32 %39, ptr %4, align 4, !tbaa !175
  %40 = sext i32 %38 to i64
  %41 = load ptr, ptr %3, align 8, !tbaa !196
  call void @PyStructSequence_SetItem(ptr noundef %37, i64 noundef %40, ptr noundef %41)
  store ptr null, ptr %3, align 8, !tbaa !196
  %42 = getelementptr inbounds [255 x i8], ptr %5, i64 0, i64 0
  %43 = call i64 @confstr(i32 noundef 3, ptr noundef %42, i64 noundef 255) #11
  %44 = trunc i64 %43 to i32
  store i32 %44, ptr %6, align 4, !tbaa !175
  %45 = load i32, ptr %6, align 4, !tbaa !175
  %46 = icmp slt i32 1, %45
  br i1 %46, label %47, label %61

47:                                               ; preds = %36
  %48 = load i32, ptr %6, align 4, !tbaa !175
  %49 = sext i32 %48 to i64
  %50 = icmp ult i64 %49, 255
  br i1 %50, label %51, label %61

51:                                               ; preds = %47
  %52 = getelementptr inbounds [255 x i8], ptr %5, i64 0, i64 0
  %53 = load i32, ptr %6, align 4, !tbaa !175
  %54 = sub i32 %53, 1
  %55 = sext i32 %54 to i64
  %56 = call ptr @PyUnicode_DecodeFSDefaultAndSize(ptr noundef %52, i64 noundef %55)
  store ptr %56, ptr %3, align 8, !tbaa !196
  %57 = load ptr, ptr %3, align 8, !tbaa !196
  %58 = icmp eq ptr %57, null
  br i1 %58, label %59, label %60

59:                                               ; preds = %51
  call void @PyErr_Clear()
  br label %60

60:                                               ; preds = %59, %51
  br label %61

61:                                               ; preds = %60, %47, %36
  %62 = load ptr, ptr %3, align 8, !tbaa !196
  %63 = icmp eq ptr %62, null
  br i1 %63, label %64, label %66

64:                                               ; preds = %61
  %65 = call ptr @_Py_NewRef(ptr noundef @_Py_NoneStruct)
  store ptr %65, ptr %3, align 8, !tbaa !196
  br label %66

66:                                               ; preds = %64, %61
  %67 = load ptr, ptr %2, align 8, !tbaa !196
  %68 = load i32, ptr %4, align 4, !tbaa !175
  %69 = add i32 %68, 1
  store i32 %69, ptr %4, align 4, !tbaa !175
  %70 = sext i32 %68 to i64
  %71 = load ptr, ptr %3, align 8, !tbaa !196
  call void @PyStructSequence_SetItem(ptr noundef %67, i64 noundef %70, ptr noundef %71)
  %72 = load ptr, ptr %2, align 8, !tbaa !196
  store ptr %72, ptr %1, align 8
  store i32 1, ptr %8, align 4
  br label %73

73:                                               ; preds = %66, %34, %23, %18, %13
  call void @llvm.lifetime.end.p0(i64 8, ptr %7) #11
  call void @llvm.lifetime.end.p0(i64 4, ptr %6) #11
  call void @llvm.lifetime.end.p0(i64 255, ptr %5) #11
  call void @llvm.lifetime.end.p0(i64 4, ptr %4) #11
  call void @llvm.lifetime.end.p0(i64 8, ptr %3) #11
  call void @llvm.lifetime.end.p0(i64 8, ptr %2) #11
  %74 = load ptr, ptr %1, align 8
  ret ptr %74
}