; Function Attrs: nounwind uwtable
define dso_local ptr @PyThread_GetInfo() local_unnamed_addr #0 {
  %1 = alloca [255 x i8], align 16
  call void @llvm.lifetime.start.p0(i64 255, ptr nonnull %1) #13
  %2 = tail call align 8 ptr @llvm.threadlocal.address.p0(ptr align 8 @_Py_tss_tstate)
  %3 = load ptr, ptr %2, align 8, !tbaa !178
  %4 = getelementptr inbounds nuw i8, ptr %3, i64 16
  %5 = load ptr, ptr %4, align 8, !tbaa !179
  %6 = tail call i32 @_PyStructSequence_InitBuiltinWithFlags(ptr noundef %5, ptr noundef nonnull @ThreadInfoType, ptr noundef nonnull @threadinfo_desc, i64 noundef 0) #13
  %7 = icmp slt i32 %6, 0
  br i1 %7, label %Py_DECREF.exit, label %8

8:                                                ; preds = %0
  %9 = tail call ptr @PyStructSequence_New(ptr noundef nonnull @ThreadInfoType) #13
  %10 = icmp eq ptr %9, null
  br i1 %10, label %Py_DECREF.exit, label %11

11:                                               ; preds = %8
  %12 = tail call ptr @PyUnicode_FromString(ptr noundef nonnull @.str.9) #13
  %13 = icmp eq ptr %12, null
  br i1 %13, label %14, label %20

14:                                               ; preds = %11
  %15 = load i32, ptr %9, align 8, !tbaa !191
  %.not.i = icmp sgt i32 %15, -1
  br i1 %.not.i, label %16, label %Py_DECREF.exit

16:                                               ; preds = %14
  %17 = add nsw i32 %15, -1
  store i32 %17, ptr %9, align 8, !tbaa !191
  %18 = icmp eq i32 %17, 0
  br i1 %18, label %19, label %Py_DECREF.exit

19:                                               ; preds = %16
  tail call void @_Py_Dealloc(ptr noundef nonnull %9) #13
  br label %Py_DECREF.exit

20:                                               ; preds = %11
  tail call void @PyStructSequence_SetItem(ptr noundef nonnull %9, i64 noundef 0, ptr noundef nonnull %12) #13
  %21 = tail call ptr @PyUnicode_FromString(ptr noundef nonnull @.str.10) #13
  %22 = icmp eq ptr %21, null
  br i1 %22, label %23, label %29

23:                                               ; preds = %20
  %24 = load i32, ptr %9, align 8, !tbaa !191
  %.not.i30 = icmp sgt i32 %24, -1
  br i1 %.not.i30, label %25, label %Py_DECREF.exit

25:                                               ; preds = %23
  %26 = add nsw i32 %24, -1
  store i32 %26, ptr %9, align 8, !tbaa !191
  %27 = icmp eq i32 %26, 0
  br i1 %27, label %28, label %Py_DECREF.exit

28:                                               ; preds = %25
  tail call void @_Py_Dealloc(ptr noundef nonnull %9) #13
  br label %Py_DECREF.exit

29:                                               ; preds = %20
  tail call void @PyStructSequence_SetItem(ptr noundef nonnull %9, i64 noundef 1, ptr noundef nonnull %21) #13
  %30 = call i64 @confstr(i32 noundef 3, ptr noundef nonnull %1, i64 noundef 255) #13
  %31 = trunc i64 %30 to i32
  %32 = add i32 %31, -2
  %or.cond = icmp ult i32 %32, 253
  br i1 %or.cond, label %33, label %39

33:                                               ; preds = %29
  %34 = add i64 %30, 4294967295
  %35 = and i64 %34, 4294967295
  %36 = call ptr @PyUnicode_DecodeFSDefaultAndSize(ptr noundef nonnull %1, i64 noundef %35) #13
  %37 = icmp eq ptr %36, null
  br i1 %37, label %38, label %_Py_NewRef.exit

38:                                               ; preds = %33
  call void @PyErr_Clear() #13
  br label %39

39:                                               ; preds = %38, %29
  %40 = load i32, ptr @_Py_NoneStruct, align 8, !tbaa !191
  %41 = icmp slt i32 %40, 0
  br i1 %41, label %_Py_NewRef.exit, label %42

42:                                               ; preds = %39
  %43 = add nuw i32 %40, 1
  store i32 %43, ptr @_Py_NoneStruct, align 8, !tbaa !191
  br label %_Py_NewRef.exit

_Py_NewRef.exit:                                  ; preds = %42, %39, %33
  %.1 = phi ptr [ %36, %33 ], [ @_Py_NoneStruct, %39 ], [ @_Py_NoneStruct, %42 ]
  call void @PyStructSequence_SetItem(ptr noundef nonnull %9, i64 noundef 2, ptr noundef nonnull %.1) #13
  br label %Py_DECREF.exit

Py_DECREF.exit:                                   ; preds = %28, %25, %23, %19, %16, %14, %8, %0, %_Py_NewRef.exit
  %.0 = phi ptr [ %9, %_Py_NewRef.exit ], [ null, %0 ], [ null, %8 ], [ null, %14 ], [ null, %16 ], [ null, %19 ], [ null, %23 ], [ null, %25 ], [ null, %28 ]
  call void @llvm.lifetime.end.p0(i64 255, ptr nonnull %1) #13
  ret ptr %.0
}